; Function Attrs: mustprogress uwtable
define void @_ZN3gmx23SelectionOptionBehavior15optionsFinishedEv(ptr nocapture noundef nonnull readonly align 8 dereferenceable(16) %0) unnamed_addr #2 align 2 {
  %2 = getelementptr inbounds i8, ptr %0, i64 8
  %3 = load ptr, ptr %2, align 8
  %4 = tail call noundef zeroext i1 @_ZN3gmx19StandardInputStream13isInteractiveEv()
  tail call void @_ZN3gmx23SelectionOptionBehavior4Impl15initIndexGroupsEv(ptr noundef nonnull align 8 dereferenceable(72) %3)
  %5 = getelementptr inbounds i8, ptr %3, i64 16
  tail call void @_ZN3gmx22SelectionOptionManager23parseRequestedFromStdinEb(ptr noundef nonnull align 8 dereferenceable(16) %5, i1 noundef zeroext %4)
  %6 = getelementptr inbounds i8, ptr %3, i64 64
  %7 = load ptr, ptr %6, align 8
  %.not.i.i = icmp eq ptr %7, null
  br i1 %.not.i.i, label %_ZN3gmx23SelectionOptionBehavior4Impl16promptSelectionsEv.exit, label %8

8:                                                ; preds = %1
  %9 = load ptr, ptr %3, align 8
  tail call void @_ZN3gmx19SelectionCollection14setIndexGroupsEP19gmx_ana_indexgrps_t(ptr noundef nonnull align 8 dereferenceable(8) %9, ptr noundef null)
  %10 = load ptr, ptr %6, align 8
  tail call void @_Z22gmx_ana_indexgrps_freeP19gmx_ana_indexgrps_t(ptr noundef %10)
  store ptr null, ptr %6, align 8
  br label %_ZN3gmx23SelectionOptionBehavior4Impl16promptSelectionsEv.exit

_ZN3gmx23SelectionOptionBehavior4Impl16promptSelectionsEv.exit: ; preds = %1, %8
  %11 = load ptr, ptr %2, align 8
  tail call void @_ZN3gmx23SelectionOptionBehavior4Impl17compileSelectionsEv(ptr noundef nonnull align 8 dereferenceable(72) %11)
  ret void
}